; Function Attrs: mustprogress uwtable
define void @_ZN11LayerDialog11updateTableEv(ptr nocapture noundef nonnull readonly align 8 dereferenceable(256) %0) local_unnamed_addr #9 align 2 personality ptr @__gxx_personality_v0 {
  %2 = alloca %class.QMap.212, align 8
  %3 = getelementptr inbounds i8, ptr %0, i64 56
  %4 = load ptr, ptr %3, align 8
  %5 = icmp eq ptr %4, null
  br i1 %5, label %_ZN4QMapIi15MLRenderingDataED2Ev.exit, label %6

6:                                                ; preds = %1
  %7 = getelementptr inbounds i8, ptr %4, i64 1368
  %8 = load ptr, ptr %7, align 8
  %9 = getelementptr inbounds i8, ptr %8, i64 240
  %10 = load ptr, ptr %9, align 8
  %.not = icmp eq ptr %10, null
  br i1 %.not, label %_ZN4QMapIi15MLRenderingDataED2Ev.exit, label %_ZNK10MainWindow3GLAEv.exit

_ZNK10MainWindow3GLAEv.exit:                      ; preds = %6
  store ptr @_ZN12QMapDataBase11shared_nullE, ptr %2, align 8
  %11 = getelementptr inbounds i8, ptr %8, i64 256
  %12 = load ptr, ptr %11, align 8
  %.not5 = icmp eq ptr %12, null
  br i1 %.not5, label %17, label %_ZNK10MainWindow3GLAEv.exit8

_ZNK10MainWindow3GLAEv.exit8:                     ; preds = %_ZNK10MainWindow3GLAEv.exit
  %13 = invoke noundef ptr @_ZNK9QGLWidget7contextEv(ptr noundef nonnull align 8 dereferenceable(48) %12)
          to label %14 unwind label %15

14:                                               ; preds = %_ZNK10MainWindow3GLAEv.exit8
  invoke void @_ZN26MLSceneGLSharedDataContext24getRenderInfoPerMeshViewEP10QGLContextR4QMapIi15MLRenderingDataE(ptr noundef nonnull align 8 dereferenceable(168) %10, ptr noundef %13, ptr noundef nonnull align 8 dereferenceable(8) %2)
          to label %._crit_edge unwind label %15

._crit_edge:                                      ; preds = %14
  %.pre = load ptr, ptr %2, align 8
  br label %17

15:                                               ; preds = %14, %_ZNK10MainWindow3GLAEv.exit8
  %16 = landingpad { ptr, i32 }
          cleanup
  call void @_ZN4QMapIi15MLRenderingDataED2Ev(ptr noundef nonnull align 8 dereferenceable(8) %2) #22
  resume { ptr, i32 } %16

17:                                               ; preds = %._crit_edge, %_ZNK10MainWindow3GLAEv.exit
  %18 = phi ptr [ %.pre, %._crit_edge ], [ @_ZN12QMapDataBase11shared_nullE, %_ZNK10MainWindow3GLAEv.exit ]
  %19 = load atomic i32, ptr %18 monotonic, align 4
  switch i32 %19, label %_ZN9QtPrivate8RefCount5derefEv.exit.i [
    i32 0, label %_ZN9QtPrivate8RefCount5derefEv.exit.thread4.i
    i32 -1, label %_ZN4QMapIi15MLRenderingDataED2Ev.exit
  ]

_ZN9QtPrivate8RefCount5derefEv.exit.i:            ; preds = %17
  %20 = atomicrmw sub ptr %18, i32 1 seq_cst, align 4
  %.not.i9 = icmp eq i32 %20, 1
  br i1 %.not.i9, label %_ZN9QtPrivate8RefCount5derefEv.exit._ZN9QtPrivate8RefCount5derefEv.exit.thread4_crit_edge.i, label %_ZN4QMapIi15MLRenderingDataED2Ev.exit

_ZN9QtPrivate8RefCount5derefEv.exit._ZN9QtPrivate8RefCount5derefEv.exit.thread4_crit_edge.i: ; preds = %_ZN9QtPrivate8RefCount5derefEv.exit.i
  %.pre.i = load ptr, ptr %2, align 8
  br label %_ZN9QtPrivate8RefCount5derefEv.exit.thread4.i

_ZN9QtPrivate8RefCount5derefEv.exit.thread4.i:    ; preds = %_ZN9QtPrivate8RefCount5derefEv.exit._ZN9QtPrivate8RefCount5derefEv.exit.thread4_crit_edge.i, %17
  %21 = phi ptr [ %.pre.i, %_ZN9QtPrivate8RefCount5derefEv.exit._ZN9QtPrivate8RefCount5derefEv.exit.thread4_crit_edge.i ], [ %18, %17 ]
  %22 = getelementptr inbounds i8, ptr %21, i64 16
  %23 = load ptr, ptr %22, align 8
  %.not.i.i = icmp eq ptr %23, null
  br i1 %.not.i.i, label %.noexc1.i, label %24

24:                                               ; preds = %_ZN9QtPrivate8RefCount5derefEv.exit.thread4.i
  invoke void @_ZN8QMapNodeIi15MLRenderingDataE14destroySubTreeEv(ptr noundef nonnull align 8 dereferenceable(72) %23)
          to label %.noexc.i unwind label %26

.noexc.i:                                         ; preds = %24
  %25 = load ptr, ptr %22, align 8
  invoke void @_ZN12QMapDataBase8freeTreeEP12QMapNodeBasei(ptr noundef nonnull align 8 dereferenceable(40) %21, ptr noundef %25, i32 noundef 8)
          to label %.noexc1.i unwind label %26

.noexc1.i:                                        ; preds = %.noexc.i, %_ZN9QtPrivate8RefCount5derefEv.exit.thread4.i
  invoke void @_ZN12QMapDataBase8freeDataEPS_(ptr noundef nonnull %21)
          to label %_ZN4QMapIi15MLRenderingDataED2Ev.exit unwind label %26

26:                                               ; preds = %.noexc1.i, %.noexc.i, %24
  %27 = landingpad { ptr, i32 }
          catch ptr null
  %28 = extractvalue { ptr, i32 } %27, 0
  call void @__clang_call_terminate(ptr %28) #24
  unreachable

_ZN4QMapIi15MLRenderingDataED2Ev.exit:            ; preds = %.noexc1.i, %_ZN9QtPrivate8RefCount5derefEv.exit.i, %17, %1, %6
  ret void
}